target datalayout = "e-m:e-p270:32:32-p271:32:32-p272:64:64-i64:64-i128:128-f80:128-n8:16:32:64-S128"
target triple = "x86_64-pc-linux-gnu"

%struct.slurm_select_ops_t = type { ptr, ptr, ptr, ptr, ptr, ptr, ptr, ptr, ptr, ptr, ptr, ptr, ptr, ptr, ptr, ptr, ptr, ptr, ptr, ptr, ptr, ptr, ptr, ptr, ptr, ptr, ptr, ptr, ptr, ptr, ptr, ptr }

@ops = internal global ptr null, align 8
@select_context_default = internal global i32 -1, align 4

; Function Attrs: nounwind uwtable
define dso_local i32 @select_g_job_begin(ptr noundef %0) #0 {
  %2 = alloca ptr, align 8
  store ptr %0, ptr %2, align 8
  %3 = load ptr, ptr @ops, align 8
  %4 = load i32, ptr @select_context_default, align 4
  %5 = sext i32 %4 to i64
  %6 = getelementptr inbounds %struct.slurm_select_ops_t, ptr %3, i64 %5
  %7 = getelementptr inbounds nuw %struct.slurm_select_ops_t, ptr %6, i32 0, i32 6
  %8 = load ptr, ptr %7, align 8
  %9 = load ptr, ptr %2, align 8
  %10 = call i32 %8(ptr noundef %9)
  ret i32 %10
}